; Function Attrs: mustprogress nounwind uwtable
define internal void @_ZN4node12_GLOBAL__N_113InMemoryEntry14InMemoryReaderD2Ev(ptr nocapture noundef nonnull readonly align 8 dereferenceable(48) %this) unnamed_addr #3 align 2 {
entry:
  %0 = getelementptr inbounds i8, ptr %this, i64 24
  %.val = load ptr, ptr %0, align 8
  %cmp.not.i.i.i.i = icmp eq ptr %.val, null
  br i1 %cmp.not.i.i.i.i, label %_ZNSt23enable_shared_from_thisIN4node12_GLOBAL__N_113InMemoryEntry14InMemoryReaderEED2Ev.exit, label %if.then.i.i.i.i

if.then.i.i.i.i:                                  ; preds = %entry
  %_M_weak_count.i.i.i.i.i = getelementptr inbounds i8, ptr %.val, i64 12
  %1 = load i8, ptr @__libc_single_threaded, align 1
  %tobool.i.not.i.i.i.i.i = icmp eq i8 %1, 0
  br i1 %tobool.i.not.i.i.i.i.i, label %if.else.i.i.i.i.i.i, label %if.then.i.i.i.i.i.i

if.then.i.i.i.i.i.i:                              ; preds = %if.then.i.i.i.i
  %2 = load i32, ptr %_M_weak_count.i.i.i.i.i, align 4
  %add.i.i.i.i.i.i = add nsw i32 %2, -1
  store i32 %add.i.i.i.i.i.i, ptr %_M_weak_count.i.i.i.i.i, align 4
  br label %_ZN9__gnu_cxx27__exchange_and_add_dispatchEPii.exit.i.i.i.i.i

if.else.i.i.i.i.i.i:                              ; preds = %if.then.i.i.i.i
  %3 = atomicrmw volatile add ptr %_M_weak_count.i.i.i.i.i, i32 -1 acq_rel, align 4
  br label %_ZN9__gnu_cxx27__exchange_and_add_dispatchEPii.exit.i.i.i.i.i

_ZN9__gnu_cxx27__exchange_and_add_dispatchEPii.exit.i.i.i.i.i: ; preds = %if.else.i.i.i.i.i.i, %if.then.i.i.i.i.i.i
  %retval.i.0.i.i.i.i.i = phi i32 [ %2, %if.then.i.i.i.i.i.i ], [ %3, %if.else.i.i.i.i.i.i ]
  %cmp.i.i.i.i.i = icmp eq i32 %retval.i.0.i.i.i.i.i, 1
  br i1 %cmp.i.i.i.i.i, label %if.then.i.i.i.i.i, label %_ZNSt23enable_shared_from_thisIN4node12_GLOBAL__N_113InMemoryEntry14InMemoryReaderEED2Ev.exit

if.then.i.i.i.i.i:                                ; preds = %_ZN9__gnu_cxx27__exchange_and_add_dispatchEPii.exit.i.i.i.i.i
  %vtable.i.i.i.i.i = load ptr, ptr %.val, align 8
  %vfn.i.i.i.i.i = getelementptr inbounds i8, ptr %vtable.i.i.i.i.i, i64 24
  %4 = load ptr, ptr %vfn.i.i.i.i.i, align 8
  tail call void %4(ptr noundef nonnull align 8 dereferenceable(16) %.val) #20
  br label %_ZNSt23enable_shared_from_thisIN4node12_GLOBAL__N_113InMemoryEntry14InMemoryReaderEED2Ev.exit

_ZNSt23enable_shared_from_thisIN4node12_GLOBAL__N_113InMemoryEntry14InMemoryReaderEED2Ev.exit: ; preds = %entry, %_ZN9__gnu_cxx27__exchange_and_add_dispatchEPii.exit.i.i.i.i.i, %if.then.i.i.i.i.i
  ret void
}